; Function Attrs: mustprogress nofree norecurse nosync nounwind willreturn memory(read, inaccessiblemem: none) uwtable
define noundef ptr @_ZN14fa_cache_sim_t9check_tagEm(ptr noundef nonnull readonly align 8 dereferenceable(208) %0, i64 noundef %1) unnamed_addr #12 align 2 {
  %3 = getelementptr inbounds i8, ptr %0, i64 48
  %4 = load i64, ptr %3, align 8
  %5 = lshr i64 %1, %4
  %6 = getelementptr inbounds i8, ptr %0, i64 176
  %7 = load ptr, ptr %6, align 8
  %8 = getelementptr inbounds i8, ptr %0, i64 168
  %.not10.i.i.i = icmp eq ptr %7, null
  br i1 %.not10.i.i.i, label %_ZNSt3mapImmSt4lessImESaISt4pairIKmmEEE4findERS3_.exit.thread, label %.lr.ph.i.i.i

.lr.ph.i.i.i:                                     ; preds = %2, %.lr.ph.i.i.i
  %.012.i.i.i = phi ptr [ %.1.i.i.i, %.lr.ph.i.i.i ], [ %7, %2 ]
  %.0811.i.i.i = phi ptr [ %.19.i.i.i, %.lr.ph.i.i.i ], [ %8, %2 ]
  %9 = getelementptr inbounds i8, ptr %.012.i.i.i, i64 32
  %10 = load i64, ptr %9, align 8
  %11 = icmp ult i64 %10, %5
  %.19.i.i.i = select i1 %11, ptr %.0811.i.i.i, ptr %.012.i.i.i
  %.1.in.v.i.i.i = select i1 %11, i64 24, i64 16
  %.1.in.i.i.i = getelementptr inbounds i8, ptr %.012.i.i.i, i64 %.1.in.v.i.i.i
  %.1.i.i.i = load ptr, ptr %.1.in.i.i.i, align 8
  %.not.i.i.i = icmp eq ptr %.1.i.i.i, null
  br i1 %.not.i.i.i, label %_ZNSt8_Rb_treeImSt4pairIKmmESt10_Select1stIS2_ESt4lessImESaIS2_EE14_M_lower_boundEPSt13_Rb_tree_nodeIS2_EPSt18_Rb_tree_node_baseRS1_.exit.i.i, label %.lr.ph.i.i.i, !llvm.loop !9

_ZNSt8_Rb_treeImSt4pairIKmmESt10_Select1stIS2_ESt4lessImESaIS2_EE14_M_lower_boundEPSt13_Rb_tree_nodeIS2_EPSt18_Rb_tree_node_baseRS1_.exit.i.i: ; preds = %.lr.ph.i.i.i
  %12 = icmp eq ptr %.19.i.i.i, %8
  br i1 %12, label %_ZNSt3mapImmSt4lessImESaISt4pairIKmmEEE4findERS3_.exit.thread, label %_ZNSt3mapImmSt4lessImESaISt4pairIKmmEEE4findERS3_.exit

_ZNSt3mapImmSt4lessImESaISt4pairIKmmEEE4findERS3_.exit: ; preds = %_ZNSt8_Rb_treeImSt4pairIKmmESt10_Select1stIS2_ESt4lessImESaIS2_EE14_M_lower_boundEPSt13_Rb_tree_nodeIS2_EPSt18_Rb_tree_node_baseRS1_.exit.i.i
  %13 = getelementptr inbounds i8, ptr %.19.i.i.i, i64 32
  %14 = load i64, ptr %13, align 8
  %15 = icmp ult i64 %5, %14
  %16 = getelementptr inbounds i8, ptr %.19.i.i.i, i64 40
  %spec.select = select i1 %15, ptr null, ptr %16
  br label %_ZNSt3mapImmSt4lessImESaISt4pairIKmmEEE4findERS3_.exit.thread

_ZNSt3mapImmSt4lessImESaISt4pairIKmmEEE4findERS3_.exit.thread: ; preds = %_ZNSt3mapImmSt4lessImESaISt4pairIKmmEEE4findERS3_.exit, %2, %_ZNSt8_Rb_treeImSt4pairIKmmESt10_Select1stIS2_ESt4lessImESaIS2_EE14_M_lower_boundEPSt13_Rb_tree_nodeIS2_EPSt18_Rb_tree_node_baseRS1_.exit.i.i
  %17 = phi ptr [ null, %_ZNSt8_Rb_treeImSt4pairIKmmESt10_Select1stIS2_ESt4lessImESaIS2_EE14_M_lower_boundEPSt13_Rb_tree_nodeIS2_EPSt18_Rb_tree_node_baseRS1_.exit.i.i ], [ null, %2 ], [ %spec.select, %_ZNSt3mapImmSt4lessImESaISt4pairIKmmEEE4findERS3_.exit ]
  ret ptr %17
}